; Function Attrs: mustprogress nofree norecurse nosync nounwind willreturn memory(none) uwtable
define internal range(i32 -1073741568, 256) i32 @get_neutrals_scale8(i32 %0, i32 %1, i32 %2, i32 noundef %3, i32 noundef %4) #7 {
  %6 = shl i32 %4, 1
  %7 = add nsw i32 %6, -255
  %8 = tail call i32 @llvm.abs.i32(i32 %7, i1 true)
  %9 = shl i32 %3, 1
  %10 = add nsw i32 %9, -255
  %11 = tail call i32 @llvm.abs.i32(i32 %10, i1 true)
  %12 = add nuw i32 %11, %8
  %13 = sub i32 510, %12
  %14 = ashr exact i32 %13, 1
  ret i32 %14
}